target datalayout = "e-m:e-p270:32:32-p271:32:32-p272:64:64-i64:64-i128:128-f80:128-n8:16:32:64-S128"
target triple = "x86_64-pc-linux-gnu"

%struct._GtkBorder = type { i16, i16, i16, i16 }

@__func__._gradient_slider_get_preferred_height = private unnamed_addr constant [38 x i8] c"_gradient_slider_get_preferred_height\00", align 1
@.str.7 = private unnamed_addr constant [15 x i8] c"widget != NULL\00", align 1
@.str.8 = private unnamed_addr constant [11 x i8] c"min-height\00", align 1

; Function Attrs: nounwind uwtable
define internal void @_gradient_slider_get_preferred_height(ptr noundef %0, ptr noundef %1, ptr noundef %2) #0 {
  %4 = alloca ptr, align 8
  %5 = alloca ptr, align 8
  %6 = alloca ptr, align 8
  %7 = alloca i32, align 4
  %8 = alloca i32, align 4
  %9 = alloca ptr, align 8
  %10 = alloca i32, align 4
  %11 = alloca %struct._GtkBorder, align 2
  %12 = alloca %struct._GtkBorder, align 2
  %13 = alloca %struct._GtkBorder, align 2
  %14 = alloca i32, align 4
  store ptr %0, ptr %4, align 8, !tbaa !54
  store ptr %1, ptr %5, align 8, !tbaa !100
  store ptr %2, ptr %6, align 8, !tbaa !100
  br label %15

15:                                               ; preds = %3
  call void @llvm.lifetime.start.p0(i64 4, ptr %7) #11
  %16 = load ptr, ptr %4, align 8, !tbaa !54
  %17 = icmp ne ptr %16, null
  br i1 %17, label %18, label %19

18:                                               ; preds = %15
  store i32 1, ptr %7, align 4, !tbaa !13
  br label %20

19:                                               ; preds = %15
  store i32 0, ptr %7, align 4, !tbaa !13
  br label %20

20:                                               ; preds = %19, %18
  %21 = load i32, ptr %7, align 4, !tbaa !13
  store i32 %21, ptr %8, align 4, !tbaa !13
  call void @llvm.lifetime.end.p0(i64 4, ptr %7) #11
  %22 = load i32, ptr %8, align 4, !tbaa !13
  %23 = sext i32 %22 to i64
  %24 = call i64 @llvm.expect.i64(i64 %23, i64 1)
  %25 = icmp ne i64 %24, 0
  br i1 %25, label %26, label %27

26:                                               ; preds = %20
  br label %28

27:                                               ; preds = %20
  call void @g_return_if_fail_warning(ptr noundef null, ptr noundef @__func__._gradient_slider_get_preferred_height, ptr noundef @.str.7)
  br label %69

28:                                               ; preds = %26
  br label %29

29:                                               ; preds = %28
  call void @llvm.lifetime.start.p0(i64 8, ptr %9) #11
  %30 = load ptr, ptr %4, align 8, !tbaa !54
  %31 = call ptr @gtk_widget_get_style_context(ptr noundef %30)
  store ptr %31, ptr %9, align 8, !tbaa !122
  call void @llvm.lifetime.start.p0(i64 4, ptr %10) #11
  %32 = load ptr, ptr %4, align 8, !tbaa !54
  %33 = call i32 @gtk_widget_get_state_flags(ptr noundef %32)
  store i32 %33, ptr %10, align 4, !tbaa !13
  call void @llvm.lifetime.start.p0(i64 8, ptr %11) #11
  call void @llvm.lifetime.start.p0(i64 8, ptr %12) #11
  call void @llvm.lifetime.start.p0(i64 8, ptr %13) #11
  call void @llvm.lifetime.start.p0(i64 4, ptr %14) #11
  %34 = load ptr, ptr %9, align 8, !tbaa !122
  %35 = load i32, ptr %10, align 4, !tbaa !13
  call void (ptr, i32, ...) @gtk_style_context_get(ptr noundef %34, i32 noundef %35, ptr noundef @.str.8, ptr noundef %14, ptr noundef null)
  %36 = load ptr, ptr %9, align 8, !tbaa !122
  %37 = load i32, ptr %10, align 4, !tbaa !13
  call void @gtk_style_context_get_margin(ptr noundef %36, i32 noundef %37, ptr noundef %11)
  %38 = load ptr, ptr %9, align 8, !tbaa !122
  %39 = load i32, ptr %10, align 4, !tbaa !13
  call void @gtk_style_context_get_border(ptr noundef %38, i32 noundef %39, ptr noundef %12)
  %40 = load ptr, ptr %9, align 8, !tbaa !122
  %41 = load i32, ptr %10, align 4, !tbaa !13
  call void @gtk_style_context_get_padding(ptr noundef %40, i32 noundef %41, ptr noundef %13)
  %42 = load i32, ptr %14, align 4, !tbaa !13
  %43 = getelementptr inbounds nuw %struct._GtkBorder, ptr %13, i32 0, i32 2
  %44 = load i16, ptr %43, align 2, !tbaa !124
  %45 = sext i16 %44 to i32
  %46 = add nsw i32 %42, %45
  %47 = getelementptr inbounds nuw %struct._GtkBorder, ptr %13, i32 0, i32 3
  %48 = load i16, ptr %47, align 2, !tbaa !127
  %49 = sext i16 %48 to i32
  %50 = add nsw i32 %46, %49
  %51 = getelementptr inbounds nuw %struct._GtkBorder, ptr %12, i32 0, i32 2
  %52 = load i16, ptr %51, align 2, !tbaa !124
  %53 = sext i16 %52 to i32
  %54 = add nsw i32 %50, %53
  %55 = getelementptr inbounds nuw %struct._GtkBorder, ptr %12, i32 0, i32 3
  %56 = load i16, ptr %55, align 2, !tbaa !127
  %57 = sext i16 %56 to i32
  %58 = add nsw i32 %54, %57
  %59 = getelementptr inbounds nuw %struct._GtkBorder, ptr %11, i32 0, i32 2
  %60 = load i16, ptr %59, align 2, !tbaa !124
  %61 = sext i16 %60 to i32
  %62 = add nsw i32 %58, %61
  %63 = getelementptr inbounds nuw %struct._GtkBorder, ptr %11, i32 0, i32 3
  %64 = load i16, ptr %63, align 2, !tbaa !127
  %65 = sext i16 %64 to i32
  %66 = add nsw i32 %62, %65
  %67 = load ptr, ptr %6, align 8, !tbaa !100
  store i32 %66, ptr %67, align 4, !tbaa !13
  %68 = load ptr, ptr %5, align 8, !tbaa !100
  store i32 %66, ptr %68, align 4, !tbaa !13
  call void @llvm.lifetime.end.p0(i64 4, ptr %14) #11
  call void @llvm.lifetime.end.p0(i64 8, ptr %13) #11
  call void @llvm.lifetime.end.p0(i64 8, ptr %12) #11
  call void @llvm.lifetime.end.p0(i64 8, ptr %11) #11
  call void @llvm.lifetime.end.p0(i64 4, ptr %10) #11
  call void @llvm.lifetime.end.p0(i64 8, ptr %9) #11
  br label %69

69:                                               ; preds = %29, %27
  ret void
}