; Function Attrs: nounwind uwtable
define internal void @_gradient_slider_get_preferred_height(ptr noundef %0, ptr noundef writeonly captures(none) %1, ptr noundef writeonly captures(none) %2) #0 {
  %4 = alloca %struct._GtkBorder, align 2
  %5 = alloca %struct._GtkBorder, align 2
  %6 = alloca %struct._GtkBorder, align 2
  %7 = alloca i32, align 4
  %.not = icmp eq ptr %0, null
  br i1 %.not, label %8, label %9, !prof !45

8:                                                ; preds = %3
  tail call void @g_return_if_fail_warning(ptr noundef null, ptr noundef nonnull @__func__._gradient_slider_get_preferred_height, ptr noundef nonnull @.str.7) #14
  br label %37

9:                                                ; preds = %3
  %10 = tail call ptr @gtk_widget_get_style_context(ptr noundef nonnull %0) #14
  %11 = tail call i32 @gtk_widget_get_state_flags(ptr noundef nonnull %0) #14
  call void @llvm.lifetime.start.p0(i64 8, ptr nonnull %4) #14
  call void @llvm.lifetime.start.p0(i64 8, ptr nonnull %5) #14
  call void @llvm.lifetime.start.p0(i64 8, ptr nonnull %6) #14
  call void @llvm.lifetime.start.p0(i64 4, ptr nonnull %7) #14
  call void (ptr, i32, ...) @gtk_style_context_get(ptr noundef %10, i32 noundef %11, ptr noundef nonnull @.str.8, ptr noundef nonnull %7, ptr noundef null) #14
  call void @gtk_style_context_get_margin(ptr noundef %10, i32 noundef %11, ptr noundef nonnull %4) #14
  call void @gtk_style_context_get_border(ptr noundef %10, i32 noundef %11, ptr noundef nonnull %5) #14
  call void @gtk_style_context_get_padding(ptr noundef %10, i32 noundef %11, ptr noundef nonnull %6) #14
  %12 = load i32, ptr %7, align 4, !tbaa !44
  %13 = getelementptr inbounds nuw i8, ptr %6, i64 4
  %14 = load i16, ptr %13, align 2, !tbaa !109
  %15 = sext i16 %14 to i32
  %16 = add nsw i32 %12, %15
  %17 = getelementptr inbounds nuw i8, ptr %6, i64 6
  %18 = load i16, ptr %17, align 2, !tbaa !112
  %19 = sext i16 %18 to i32
  %20 = add nsw i32 %16, %19
  %21 = getelementptr inbounds nuw i8, ptr %5, i64 4
  %22 = load i16, ptr %21, align 2, !tbaa !109
  %23 = sext i16 %22 to i32
  %24 = add nsw i32 %20, %23
  %25 = getelementptr inbounds nuw i8, ptr %5, i64 6
  %26 = load i16, ptr %25, align 2, !tbaa !112
  %27 = sext i16 %26 to i32
  %28 = add nsw i32 %24, %27
  %29 = getelementptr inbounds nuw i8, ptr %4, i64 4
  %30 = load i16, ptr %29, align 2, !tbaa !109
  %31 = sext i16 %30 to i32
  %32 = add nsw i32 %28, %31
  %33 = getelementptr inbounds nuw i8, ptr %4, i64 6
  %34 = load i16, ptr %33, align 2, !tbaa !112
  %35 = sext i16 %34 to i32
  %36 = add nsw i32 %32, %35
  store i32 %36, ptr %2, align 4, !tbaa !44
  store i32 %36, ptr %1, align 4, !tbaa !44
  call void @llvm.lifetime.end.p0(i64 4, ptr nonnull %7) #14
  call void @llvm.lifetime.end.p0(i64 8, ptr nonnull %6) #14
  call void @llvm.lifetime.end.p0(i64 8, ptr nonnull %5) #14
  call void @llvm.lifetime.end.p0(i64 8, ptr nonnull %4) #14
  br label %37

37:                                               ; preds = %9, %8
  ret void
}